; Function Attrs: mustprogress nofree norecurse nosync nounwind willreturn memory(read, inaccessiblemem: none) uwtable
define noundef ptr @_ZNK7testing8UnitTest11GetTestCaseEi(ptr noundef nonnull readonly align 8 captures(none) dereferenceable(72) %0, i32 noundef %1) local_unnamed_addr #25 align 2 {
  %3 = getelementptr inbounds nuw i8, ptr %0, i64 64
  %4 = load ptr, ptr %3, align 8, !tbaa !47
  %5 = icmp slt i32 %1, 0
  br i1 %5, label %_ZNK7testing8internal12UnitTestImpl11GetTestCaseEi.exit, label %6

6:                                                ; preds = %2
  %7 = getelementptr inbounds nuw i8, ptr %4, i64 208
  %8 = getelementptr inbounds nuw i8, ptr %4, i64 216
  %9 = load ptr, ptr %8, align 8, !tbaa !1441
  %10 = load ptr, ptr %7, align 8, !tbaa !1437
  %11 = ptrtoint ptr %9 to i64
  %12 = ptrtoint ptr %10 to i64
  %13 = sub i64 %11, %12
  %14 = lshr exact i64 %13, 2
  %15 = trunc i64 %14 to i32
  %.not.i.i.i = icmp slt i32 %1, %15
  br i1 %.not.i.i.i, label %_ZN7testing8internal12GetElementOrIiEET_RKSt6vectorIS2_SaIS2_EEiS2_.exit.i.i, label %_ZNK7testing8internal12UnitTestImpl11GetTestCaseEi.exit

_ZN7testing8internal12GetElementOrIiEET_RKSt6vectorIS2_SaIS2_EEiS2_.exit.i.i: ; preds = %6
  %16 = zext nneg i32 %1 to i64
  %17 = getelementptr inbounds nuw i32, ptr %10, i64 %16
  %18 = load i32, ptr %17, align 4, !tbaa !45
  %19 = icmp slt i32 %18, 0
  br i1 %19, label %_ZNK7testing8internal12UnitTestImpl11GetTestCaseEi.exit, label %20

20:                                               ; preds = %_ZN7testing8internal12GetElementOrIiEET_RKSt6vectorIS2_SaIS2_EEiS2_.exit.i.i
  %21 = getelementptr inbounds nuw i8, ptr %4, i64 184
  %22 = load ptr, ptr %21, align 8, !tbaa !1129
  %23 = getelementptr inbounds nuw ptr, ptr %22, i64 %16
  %24 = load ptr, ptr %23, align 8, !tbaa !1113
  br label %_ZNK7testing8internal12UnitTestImpl11GetTestCaseEi.exit

_ZNK7testing8internal12UnitTestImpl11GetTestCaseEi.exit: ; preds = %2, %6, %_ZN7testing8internal12GetElementOrIiEET_RKSt6vectorIS2_SaIS2_EEiS2_.exit.i.i, %20
  %25 = phi ptr [ %24, %20 ], [ null, %_ZN7testing8internal12GetElementOrIiEET_RKSt6vectorIS2_SaIS2_EEiS2_.exit.i.i ], [ null, %6 ], [ null, %2 ]
  ret ptr %25
}